target datalayout = "e-m:e-p270:32:32-p271:32:32-p272:64:64-i64:64-i128:128-f80:128-n8:16:32:64-S128"
target triple = "x86_64-pc-linux-gnu"

%struct.AVRational = type { i32, i32 }
%struct.AVPacket = type { ptr, i64, i64, ptr, i32, i32, i32, ptr, i32, i64, i64, ptr, ptr, %struct.AVRational }
%struct.AVPacketSideData = type { ptr, i64, i32 }

; Function Attrs: nounwind uwtable
define void @av_packet_free_side_data(ptr noundef %0) #0 {
  %2 = alloca ptr, align 8
  %3 = alloca i32, align 4
  store ptr %0, ptr %2, align 8, !tbaa !4
  call void @llvm.lifetime.start.p0(i64 4, ptr %3) #9
  store i32 0, ptr %3, align 4, !tbaa !28
  br label %4

4:                                                ; preds = %18, %1
  %5 = load i32, ptr %3, align 4, !tbaa !28
  %6 = load ptr, ptr %2, align 8, !tbaa !4
  %7 = getelementptr inbounds nuw %struct.AVPacket, ptr %6, i32 0, i32 8
  %8 = load i32, ptr %7, align 8, !tbaa !24
  %9 = icmp slt i32 %5, %8
  br i1 %9, label %10, label %21

10:                                               ; preds = %4
  %11 = load ptr, ptr %2, align 8, !tbaa !4
  %12 = getelementptr inbounds nuw %struct.AVPacket, ptr %11, i32 0, i32 7
  %13 = load ptr, ptr %12, align 8, !tbaa !23
  %14 = load i32, ptr %3, align 4, !tbaa !28
  %15 = sext i32 %14 to i64
  %16 = getelementptr inbounds %struct.AVPacketSideData, ptr %13, i64 %15
  %17 = getelementptr inbounds nuw %struct.AVPacketSideData, ptr %16, i32 0, i32 0
  call void @av_freep(ptr noundef %17)
  br label %18

18:                                               ; preds = %10
  %19 = load i32, ptr %3, align 4, !tbaa !28
  %20 = add nsw i32 %19, 1
  store i32 %20, ptr %3, align 4, !tbaa !28
  br label %4, !llvm.loop !45

21:                                               ; preds = %4
  %22 = load ptr, ptr %2, align 8, !tbaa !4
  %23 = getelementptr inbounds nuw %struct.AVPacket, ptr %22, i32 0, i32 7
  call void @av_freep(ptr noundef %23)
  %24 = load ptr, ptr %2, align 8, !tbaa !4
  %25 = getelementptr inbounds nuw %struct.AVPacket, ptr %24, i32 0, i32 8
  store i32 0, ptr %25, align 8, !tbaa !24
  call void @llvm.lifetime.end.p0(i64 4, ptr %3) #9
  ret void
}

; Function Attrs: nounwind uwtable
define i32 @av_packet_copy_props(ptr noundef %0, ptr noundef %1) #0 {
  %3 = alloca i32, align 4
  %4 = alloca ptr, align 8
  %5 = alloca ptr, align 8
  %6 = alloca i32, align 4
  %7 = alloca i32, align 4
  %8 = alloca i32, align 4
  %9 = alloca i32, align 4
  %10 = alloca i64, align 8
  %11 = alloca ptr, align 8
  %12 = alloca ptr, align 8
  store ptr %0, ptr %4, align 8, !tbaa !4
  store ptr %1, ptr %5, align 8, !tbaa !4
  call void @llvm.lifetime.start.p0(i64 4, ptr %6) #9
  call void @llvm.lifetime.start.p0(i64 4, ptr %7) #9
  %13 = load ptr, ptr %5, align 8, !tbaa !4
  %14 = getelementptr inbounds nuw %struct.AVPacket, ptr %13, i32 0, i32 1
  %15 = load i64, ptr %14, align 8, !tbaa !9
  %16 = load ptr, ptr %4, align 8, !tbaa !4
  %17 = getelementptr inbounds nuw %struct.AVPacket, ptr %16, i32 0, i32 1
  store i64 %15, ptr %17, align 8, !tbaa !9
  %18 = load ptr, ptr %5, align 8, !tbaa !4
  %19 = getelementptr inbounds nuw %struct.AVPacket, ptr %18, i32 0, i32 2
  %20 = load i64, ptr %19, align 8, !tbaa !17
  %21 = load ptr, ptr %4, align 8, !tbaa !4
  %22 = getelementptr inbounds nuw %struct.AVPacket, ptr %21, i32 0, i32 2
  store i64 %20, ptr %22, align 8, !tbaa !17
  %23 = load ptr, ptr %5, align 8, !tbaa !4
  %24 = getelementptr inbounds nuw %struct.AVPacket, ptr %23, i32 0, i32 10
  %25 = load i64, ptr %24, align 8, !tbaa !18
  %26 = load ptr, ptr %4, align 8, !tbaa !4
  %27 = getelementptr inbounds nuw %struct.AVPacket, ptr %26, i32 0, i32 10
  store i64 %25, ptr %27, align 8, !tbaa !18
  %28 = load ptr, ptr %5, align 8, !tbaa !4
  %29 = getelementptr inbounds nuw %struct.AVPacket, ptr %28, i32 0, i32 9
  %30 = load i64, ptr %29, align 8, !tbaa !19
  %31 = load ptr, ptr %4, align 8, !tbaa !4
  %32 = getelementptr inbounds nuw %struct.AVPacket, ptr %31, i32 0, i32 9
  store i64 %30, ptr %32, align 8, !tbaa !19
  %33 = load ptr, ptr %5, align 8, !tbaa !4
  %34 = getelementptr inbounds nuw %struct.AVPacket, ptr %33, i32 0, i32 6
  %35 = load i32, ptr %34, align 8, !tbaa !20
  %36 = load ptr, ptr %4, align 8, !tbaa !4
  %37 = getelementptr inbounds nuw %struct.AVPacket, ptr %36, i32 0, i32 6
  store i32 %35, ptr %37, align 8, !tbaa !20
  %38 = load ptr, ptr %5, align 8, !tbaa !4
  %39 = getelementptr inbounds nuw %struct.AVPacket, ptr %38, i32 0, i32 5
  %40 = load i32, ptr %39, align 4, !tbaa !21
  %41 = load ptr, ptr %4, align 8, !tbaa !4
  %42 = getelementptr inbounds nuw %struct.AVPacket, ptr %41, i32 0, i32 5
  store i32 %40, ptr %42, align 4, !tbaa !21
  %43 = load ptr, ptr %5, align 8, !tbaa !4
  %44 = getelementptr inbounds nuw %struct.AVPacket, ptr %43, i32 0, i32 11
  %45 = load ptr, ptr %44, align 8, !tbaa !25
  %46 = load ptr, ptr %4, align 8, !tbaa !4
  %47 = getelementptr inbounds nuw %struct.AVPacket, ptr %46, i32 0, i32 11
  store ptr %45, ptr %47, align 8, !tbaa !25
  %48 = load ptr, ptr %4, align 8, !tbaa !4
  %49 = getelementptr inbounds nuw %struct.AVPacket, ptr %48, i32 0, i32 13
  %50 = load ptr, ptr %5, align 8, !tbaa !4
  %51 = getelementptr inbounds nuw %struct.AVPacket, ptr %50, i32 0, i32 13
  call void @llvm.memcpy.p0.p0.i64(ptr align 8 %49, ptr align 8 %51, i64 8, i1 false), !tbaa.struct !27
  %52 = load ptr, ptr %4, align 8, !tbaa !4
  %53 = getelementptr inbounds nuw %struct.AVPacket, ptr %52, i32 0, i32 12
  store ptr null, ptr %53, align 8, !tbaa !26
  %54 = load ptr, ptr %4, align 8, !tbaa !4
  %55 = getelementptr inbounds nuw %struct.AVPacket, ptr %54, i32 0, i32 7
  store ptr null, ptr %55, align 8, !tbaa !23
  %56 = load ptr, ptr %4, align 8, !tbaa !4
  %57 = getelementptr inbounds nuw %struct.AVPacket, ptr %56, i32 0, i32 8
  store i32 0, ptr %57, align 8, !tbaa !24
  %58 = load ptr, ptr %4, align 8, !tbaa !4
  %59 = getelementptr inbounds nuw %struct.AVPacket, ptr %58, i32 0, i32 12
  %60 = load ptr, ptr %5, align 8, !tbaa !4
  %61 = getelementptr inbounds nuw %struct.AVPacket, ptr %60, i32 0, i32 12
  %62 = load ptr, ptr %61, align 8, !tbaa !26
  %63 = call i32 @av_buffer_replace(ptr noundef %59, ptr noundef %62)
  store i32 %63, ptr %7, align 4, !tbaa !28
  %64 = load i32, ptr %7, align 4, !tbaa !28
  %65 = icmp slt i32 %64, 0
  br i1 %65, label %66, label %68

66:                                               ; preds = %2
  %67 = load i32, ptr %7, align 4, !tbaa !28
  store i32 %67, ptr %3, align 4
  store i32 1, ptr %8, align 4
  br label %121

68:                                               ; preds = %2
  store i32 0, ptr %6, align 4, !tbaa !28
  br label %69

69:                                               ; preds = %117, %68
  %70 = load i32, ptr %6, align 4, !tbaa !28
  %71 = load ptr, ptr %5, align 8, !tbaa !4
  %72 = getelementptr inbounds nuw %struct.AVPacket, ptr %71, i32 0, i32 8
  %73 = load i32, ptr %72, align 8, !tbaa !24
  %74 = icmp slt i32 %70, %73
  br i1 %74, label %75, label %120

75:                                               ; preds = %69
  call void @llvm.lifetime.start.p0(i64 4, ptr %9) #9
  %76 = load ptr, ptr %5, align 8, !tbaa !4
  %77 = getelementptr inbounds nuw %struct.AVPacket, ptr %76, i32 0, i32 7
  %78 = load ptr, ptr %77, align 8, !tbaa !23
  %79 = load i32, ptr %6, align 4, !tbaa !28
  %80 = sext i32 %79 to i64
  %81 = getelementptr inbounds %struct.AVPacketSideData, ptr %78, i64 %80
  %82 = getelementptr inbounds nuw %struct.AVPacketSideData, ptr %81, i32 0, i32 2
  %83 = load i32, ptr %82, align 8, !tbaa !48
  store i32 %83, ptr %9, align 4, !tbaa !28
  call void @llvm.lifetime.start.p0(i64 8, ptr %10) #9
  %84 = load ptr, ptr %5, align 8, !tbaa !4
  %85 = getelementptr inbounds nuw %struct.AVPacket, ptr %84, i32 0, i32 7
  %86 = load ptr, ptr %85, align 8, !tbaa !23
  %87 = load i32, ptr %6, align 4, !tbaa !28
  %88 = sext i32 %87 to i64
  %89 = getelementptr inbounds %struct.AVPacketSideData, ptr %86, i64 %88
  %90 = getelementptr inbounds nuw %struct.AVPacketSideData, ptr %89, i32 0, i32 1
  %91 = load i64, ptr %90, align 8, !tbaa !51
  store i64 %91, ptr %10, align 8, !tbaa !43
  call void @llvm.lifetime.start.p0(i64 8, ptr %11) #9
  %92 = load ptr, ptr %5, align 8, !tbaa !4
  %93 = getelementptr inbounds nuw %struct.AVPacket, ptr %92, i32 0, i32 7
  %94 = load ptr, ptr %93, align 8, !tbaa !23
  %95 = load i32, ptr %6, align 4, !tbaa !28
  %96 = sext i32 %95 to i64
  %97 = getelementptr inbounds %struct.AVPacketSideData, ptr %94, i64 %96
  %98 = getelementptr inbounds nuw %struct.AVPacketSideData, ptr %97, i32 0, i32 0
  %99 = load ptr, ptr %98, align 8, !tbaa !50
  store ptr %99, ptr %11, align 8, !tbaa !42
  call void @llvm.lifetime.start.p0(i64 8, ptr %12) #9
  %100 = load ptr, ptr %4, align 8, !tbaa !4
  %101 = load i32, ptr %9, align 4, !tbaa !28
  %102 = load i64, ptr %10, align 8, !tbaa !43
  %103 = call ptr @av_packet_new_side_data(ptr noundef %100, i32 noundef %101, i64 noundef %102)
  store ptr %103, ptr %12, align 8, !tbaa !42
  %104 = load ptr, ptr %12, align 8, !tbaa !42
  %105 = icmp ne ptr %104, null
  br i1 %105, label %110, label %106

106:                                              ; preds = %75
  %107 = load ptr, ptr %4, align 8, !tbaa !4
  %108 = getelementptr inbounds nuw %struct.AVPacket, ptr %107, i32 0, i32 12
  call void @av_buffer_unref(ptr noundef %108)
  %109 = load ptr, ptr %4, align 8, !tbaa !4
  call void @av_packet_free_side_data(ptr noundef %109)
  store i32 -12, ptr %3, align 4
  store i32 1, ptr %8, align 4
  br label %114

110:                                              ; preds = %75
  %111 = load ptr, ptr %12, align 8, !tbaa !42
  %112 = load ptr, ptr %11, align 8, !tbaa !42
  %113 = load i64, ptr %10, align 8, !tbaa !43
  call void @llvm.memcpy.p0.p0.i64(ptr align 1 %111, ptr align 1 %112, i64 %113, i1 false)
  store i32 0, ptr %8, align 4
  br label %114

114:                                              ; preds = %110, %106
  call void @llvm.lifetime.end.p0(i64 8, ptr %12) #9
  call void @llvm.lifetime.end.p0(i64 8, ptr %11) #9
  call void @llvm.lifetime.end.p0(i64 8, ptr %10) #9
  call void @llvm.lifetime.end.p0(i64 4, ptr %9) #9
  %115 = load i32, ptr %8, align 4
  switch i32 %115, label %121 [
    i32 0, label %116
  ]

116:                                              ; preds = %114
  br label %117

117:                                              ; preds = %116
  %118 = load i32, ptr %6, align 4, !tbaa !28
  %119 = add nsw i32 %118, 1
  store i32 %119, ptr %6, align 4, !tbaa !28
  br label %69, !llvm.loop !71

120:                                              ; preds = %69
  store i32 0, ptr %3, align 4
  store i32 1, ptr %8, align 4
  br label %121

121:                                              ; preds = %120, %114, %66
  call void @llvm.lifetime.end.p0(i64 4, ptr %7) #9
  call void @llvm.lifetime.end.p0(i64 4, ptr %6) #9
  %122 = load i32, ptr %3, align 4
  ret i32 %122
}