; Function Attrs: nounwind uwtable
define range(i32 -2147483648, 1) i32 @av_packet_copy_props(ptr noundef initializes((8, 24), (36, 44), (48, 60), (64, 104)) %0, ptr noundef readonly captures(none) %1) local_unnamed_addr #3 {
  %3 = getelementptr inbounds nuw i8, ptr %1, i64 8
  %4 = load i64, ptr %3, align 8, !tbaa !4
  %5 = getelementptr inbounds nuw i8, ptr %0, i64 8
  store i64 %4, ptr %5, align 8, !tbaa !4
  %6 = getelementptr inbounds nuw i8, ptr %1, i64 16
  %7 = load i64, ptr %6, align 8, !tbaa !15
  %8 = getelementptr inbounds nuw i8, ptr %0, i64 16
  store i64 %7, ptr %8, align 8, !tbaa !15
  %9 = getelementptr inbounds nuw i8, ptr %1, i64 72
  %10 = load i64, ptr %9, align 8, !tbaa !16
  %11 = getelementptr inbounds nuw i8, ptr %0, i64 72
  store i64 %10, ptr %11, align 8, !tbaa !16
  %12 = getelementptr inbounds nuw i8, ptr %1, i64 64
  %13 = load i64, ptr %12, align 8, !tbaa !17
  %14 = getelementptr inbounds nuw i8, ptr %0, i64 64
  store i64 %13, ptr %14, align 8, !tbaa !17
  %15 = getelementptr inbounds nuw i8, ptr %1, i64 40
  %16 = load i32, ptr %15, align 8, !tbaa !18
  %17 = getelementptr inbounds nuw i8, ptr %0, i64 40
  store i32 %16, ptr %17, align 8, !tbaa !18
  %18 = getelementptr inbounds nuw i8, ptr %1, i64 36
  %19 = load i32, ptr %18, align 4, !tbaa !19
  %20 = getelementptr inbounds nuw i8, ptr %0, i64 36
  store i32 %19, ptr %20, align 4, !tbaa !19
  %21 = getelementptr inbounds nuw i8, ptr %1, i64 80
  %22 = load ptr, ptr %21, align 8, !tbaa !48
  %23 = getelementptr inbounds nuw i8, ptr %0, i64 80
  store ptr %22, ptr %23, align 8, !tbaa !48
  %24 = getelementptr inbounds nuw i8, ptr %0, i64 96
  %25 = getelementptr inbounds nuw i8, ptr %1, i64 96
  %26 = load i64, ptr %25, align 8
  store i64 %26, ptr %24, align 8
  %27 = getelementptr inbounds nuw i8, ptr %0, i64 88
  store ptr null, ptr %27, align 8, !tbaa !49
  %28 = getelementptr inbounds nuw i8, ptr %0, i64 48
  store ptr null, ptr %28, align 8, !tbaa !21
  %29 = getelementptr inbounds nuw i8, ptr %0, i64 56
  store i32 0, ptr %29, align 8, !tbaa !22
  %30 = getelementptr inbounds nuw i8, ptr %1, i64 88
  %31 = load ptr, ptr %30, align 8, !tbaa !49
  %32 = tail call i32 @av_buffer_replace(ptr noundef nonnull %27, ptr noundef %31) #16
  %33 = icmp slt i32 %32, 0
  br i1 %33, label %.loopexit, label %.preheader

.preheader:                                       ; preds = %2
  %34 = getelementptr inbounds nuw i8, ptr %1, i64 56
  %35 = load i32, ptr %34, align 8, !tbaa !22
  %36 = icmp sgt i32 %35, 0
  br i1 %36, label %.lr.ph, label %.loopexit

.lr.ph:                                           ; preds = %.preheader
  %37 = getelementptr inbounds nuw i8, ptr %1, i64 48
  br label %38

38:                                               ; preds = %.lr.ph, %55
  %indvars.iv = phi i64 [ 0, %.lr.ph ], [ %indvars.iv.next, %55 ]
  %39 = load ptr, ptr %37, align 8, !tbaa !21
  %40 = getelementptr inbounds nuw %struct.AVPacketSideData, ptr %39, i64 %indvars.iv
  %41 = getelementptr inbounds nuw i8, ptr %40, i64 16
  %42 = load i32, ptr %41, align 8, !tbaa !35
  %43 = getelementptr inbounds nuw i8, ptr %40, i64 8
  %44 = load i64, ptr %43, align 8, !tbaa !38
  %45 = load ptr, ptr %40, align 8, !tbaa !37
  %46 = tail call ptr @av_packet_new_side_data(ptr noundef %0, i32 noundef %42, i64 noundef %44)
  %.not.not = icmp eq ptr %46, null
  br i1 %.not.not, label %47, label %55

47:                                               ; preds = %38
  tail call void @av_buffer_unref(ptr noundef nonnull %27) #16
  %48 = load i32, ptr %29, align 8, !tbaa !22
  %49 = icmp sgt i32 %48, 0
  br i1 %49, label %.lr.ph.i, label %.thread

.lr.ph.i:                                         ; preds = %47, %.lr.ph.i
  %indvars.iv.i = phi i64 [ %indvars.iv.next.i, %.lr.ph.i ], [ 0, %47 ]
  %50 = load ptr, ptr %28, align 8, !tbaa !21
  %51 = getelementptr inbounds nuw %struct.AVPacketSideData, ptr %50, i64 %indvars.iv.i
  tail call void @av_freep(ptr noundef %51) #16
  %indvars.iv.next.i = add nuw nsw i64 %indvars.iv.i, 1
  %52 = load i32, ptr %29, align 8, !tbaa !22
  %53 = sext i32 %52 to i64
  %54 = icmp slt i64 %indvars.iv.next.i, %53
  br i1 %54, label %.lr.ph.i, label %.thread, !llvm.loop !25

.thread:                                          ; preds = %.lr.ph.i, %47
  tail call void @av_freep(ptr noundef nonnull %28) #16
  store i32 0, ptr %29, align 8, !tbaa !22
  br label %.loopexit

55:                                               ; preds = %38
  tail call void @llvm.memcpy.p0.p0.i64(ptr nonnull align 1 %46, ptr align 1 %45, i64 %44, i1 false)
  %indvars.iv.next = add nuw nsw i64 %indvars.iv, 1
  %56 = load i32, ptr %34, align 8, !tbaa !22
  %57 = sext i32 %56 to i64
  %58 = icmp slt i64 %indvars.iv.next, %57
  br i1 %58, label %38, label %.loopexit, !llvm.loop !50

.loopexit:                                        ; preds = %55, %.preheader, %.thread, %2
  %.0 = phi i32 [ %32, %2 ], [ -12, %.thread ], [ 0, %.preheader ], [ 0, %55 ]
  ret i32 %.0
}